(dp0
S'hip_rotation_r'
p1
I8
sS'knee_angle_r'
p2
I9
sS'ankle_angle_r'
p3
I10
sS'pelvis_tz'
p4
I5
sS'pelvis_ty'
p5
I4
sS'pelvis_tx'
p6
I3
sS'hip_flexion_r'
p7
I6
sS'subtalar_angle_r'
p8
I11
sS'pelvis_tilt'
p9
I0
sS'hip_adduction_l'
p10
I13
sS'ankle_angle_l'
p11
I16
sS'hip_adduction_r'
p12
I7
sS'hip_flexion_l'
p13
I12
sS'subtalar_angle_l'
p14
I17
sS'pelvis_rotation'
p15
I2
sS'knee_angle_l'
p16
I15
sS'pelvis_list'
p17
I1
sS'hip_rotation_l'
p18
I14
s.